ccopy_reg
_reconstructor
p1
(clenstools.pipeline.settings
PlaneSettings
p2
c__builtin__
object
p3
NtRp4
(dp5
S'kind'
p6
S'potential'
p7
sS'thickness_resolution'
p8
I1
sS'name_format'
p9
S'snap{0}_{1}Plane{2}_normal{3}.{4}'
p10
sS'format'
p11
S'fits'
p12
sS'last_snapshot'
p13
I55
sS'normals'
p14
(lp15
I0
aI1
aI2
asS'smooth'
p16
I1
sS'snapshots'
p17
NsS'thickness'
p18
cnumpy.core.multiarray
_reconstruct
p19
(castropy.units.quantity
Quantity
p20
(I0
tS'b'
tRp21
((I1
(tcnumpy
dtype
p22
(S'f8'
I0
I1
tRp23
(I3
S'<'
NNNI-1
I-1
I0
tbI00
S'\x00\x00\x00\x00\x00\x00^@'
t(dp24
S'_unit'
p25
g1
(castropy.units.core
PrefixUnit
p26
g3
NtRp27
(dp28
S'_format'
p29
(dp30
sS'_short_names'
p31
(lp32
VMpc
p33
asS'_names'
p34
(lp35
g33
aVmegaparsec
p36
asS'_represents'
p37
g1
(castropy.units.core
CompositeUnit
p38
g3
NtRp39
(dp40
S'_decomposed_cache'
p41
g1
(g38
g3
NtRp42
(dp43
g41
NsS'_powers'
p44
(lp45
I1
asS'_scale'
p46
F3.0856775814671917e+22
sS'_hash'
p47
NsS'_bases'
p48
(lp49
castropy.units.core
_recreate_irreducible_unit
p50
(castropy.units.core
IrreducibleUnit
p51
(lp52
Vm
aVmeter
p53
aI01
tRp54
(dp55
g29
(dp56
sg31
(lp57
Vm
asg34
(lp58
Vm
ag53
asS'__doc__'
p59
Vmeter: base unit of length in SI
p60
sS'_long_names'
p61
(lp62
g53
asbasbsg44
(lp63
I1
asg46
F1000000
sg47
I5922263298416514872
sg48
(lp64
g1
(castropy.units.core
Unit
p65
g3
NtRp66
(dp67
g29
(dp68
sg31
(lp69
Vpc
p70
asg34
(lp71
g70
aVparsec
p72
asg37
g1
(g38
g3
NtRp73
(dp74
g41
g73
sg44
(lp75
I1
asg46
F30856775814671916
sg47
I-1459738009292166718
sg48
(lp76
g54
asbsg59
Vparsec: approximately 3.26 light-years.
p77
sg61
(lp78
g72
asbasbsg59
Vmegaparsec (Mpc)
p79
sg61
(lp80
g36
asbstbsS'cut_points'
p81
g19
(g20
(I0
tS'b'
tRp82
((I1
(I3
tg23
I00
S'\xd7\xa3p=\n\x17N@\x9a\x99\x99\x99\x99\x91f@\x1f\x85\xebQ\xb8\xcer@'
t(dp83
g25
g27
stbsS'plane_resolution'
p84
I4096
sS'override_with_local'
p85
I00
sS'directory_name'
p86
S'Planes_fiducial'
p87
sS'length_unit'
p88
g27
sS'first_snapshot'
p89
I0
sb.