ccopy_reg
_reconstructor
p1
(cbatchcode.library.cutplanesTFR
PlaneSettingsTFR
p2
c__builtin__
object
p3
NtRp4
(dp5
S'kind'
p6
S'potential'
p7
sS'thickness_resolution'
p8
I1
sS'name_format'
p9
S'snap{0}_{1}Plane{2}_normal{3}.{4}'
p10
sS'format'
p11
S'fits'
p12
sS'cur2target'
p13
S'cur2target.json'
p14
sS'last_snapshot'
p15
I55
sS'normals'
p16
(lp17
I0
aI1
aI2
asS'smooth'
p18
I1
sS'snapshots'
p19
NsS'thickness'
p20
cnumpy.core.multiarray
_reconstruct
p21
(castropy.units.quantity
Quantity
p22
(I0
tS'b'
tRp23
((I1
(tcnumpy
dtype
p24
(S'f8'
I0
I1
tRp25
(I3
S'<'
NNNI-1
I-1
I0
tbI00
S'\x00\x00\x00\x00\x00\x00^@'
t(dp26
S'_unit'
p27
g1
(castropy.units.core
PrefixUnit
p28
g3
NtRp29
(dp30
S'_format'
p31
(dp32
sS'_short_names'
p33
(lp34
VMpc
p35
asS'_names'
p36
(lp37
g35
aVmegaparsec
p38
asS'_represents'
p39
g1
(castropy.units.core
CompositeUnit
p40
g3
NtRp41
(dp42
S'_decomposed_cache'
p43
g1
(g40
g3
NtRp44
(dp45
g43
NsS'_powers'
p46
(lp47
I1
asS'_scale'
p48
F3.0856775814671917e+22
sS'_hash'
p49
NsS'_bases'
p50
(lp51
castropy.units.core
_recreate_irreducible_unit
p52
(castropy.units.core
IrreducibleUnit
p53
(lp54
Vm
aVmeter
p55
aI01
tRp56
(dp57
g31
(dp58
sg33
(lp59
Vm
asg36
(lp60
Vm
ag55
asS'__doc__'
p61
Vmeter: base unit of length in SI
p62
sS'_long_names'
p63
(lp64
g55
asbasbsg46
(lp65
I1
asg48
F1000000
sg49
I5922263298416514872
sg50
(lp66
g1
(castropy.units.core
Unit
p67
g3
NtRp68
(dp69
g31
(dp70
sg33
(lp71
Vpc
p72
asg36
(lp73
g72
aVparsec
p74
asg39
g1
(g40
g3
NtRp75
(dp76
g43
g75
sg46
(lp77
I1
asg48
F30856775814671916
sg49
I-1459738009292166718
sg50
(lp78
g56
asbsg61
Vparsec: approximately 3.26 light-years.
p79
sg63
(lp80
g74
asbasbsg61
Vmegaparsec (Mpc)
p81
sg63
(lp82
g38
asbstbsS'cut_points'
p83
g21
(g22
(I0
tS'b'
tRp84
((I1
(I3
tg25
I00
S'\xd7\xa3p=\n\x17N@\x9a\x99\x99\x99\x99\x91f@\x1f\x85\xebQ\xb8\xcer@'
t(dp85
g27
g29
stbsS'plane_resolution'
p86
I4096
sS'override_with_local'
p87
I00
sS'parent_plane_set'
p88
S'Planes'
p89
sS'directory_name'
p90
S'Planes_growth'
p91
sS'length_unit'
p92
g29
sS'with_scale_factor'
p93
I00
sS'first_snapshot'
p94
I0
sb.